(dp0
S'F336W'
p1
S'D'
p2
sS'ZQUAL'
p3
g2
sS'E_DDO51'
p4
g2
sS'M36'
p5
g2
sS'E_F814W'
p6
g2
sS'E_M36'
p7
g2
sS'PAR_A'
p8
g2
sS'DEC_DEG'
p9
g2
sS'TIO'
p10
g2
sS'MASK_DEC_DEG'
p11
g2
sS'VHEL'
p12
g2
sS'F814W'
p13
g2
sS'E_M45'
p14
g2
sS'DEC'
p15
S'11A'
p16
sS'E_F275W'
p17
g2
sS'PIXAV'
p18
g2
sS'E_V'
p19
g2
sS'E_T'
p20
g2
sS'MASK'
p21
S'7A'
p22
sS'E_F475W'
p23
g2
sS'E_F336W'
p24
g2
sS'MASK_RA'
p25
g16
sS'RA'
p26
g16
sS'GRATE'
p27
g2
sS'IVARCALIB'
p28
S'E'
p29
sS'E_I'
p30
g2
sS'LBIN'
p31
g29
sS'F475W'
p32
g2
sS'E_M'
p33
g2
sS'MJD'
p34
g2
sS'F275W'
p35
g2
sS'CN'
p36
g2
sS'E_F160W'
p37
g2
sS'I'
p38
g2
sS'MASK_DEC'
p39
g16
sS'E_VHEL'
p40
g2
sS'M'
p41
g2
sS'E_R'
p42
g2
sS'M45'
p43
g2
sS'F160W'
p44
g2
sS'IVARNORM'
p45
g29
sS'SPECNORM'
p46
g29
sS'FIELDTYPE'
p47
S'9A'
p48
sS'DDO51'
p49
g2
sS'V'
p50
g2
sS'ABAND'
p51
g2
sS'Z'
p52
g2
sS'EVSTAGE'
p53
g2
sS'AIRMASS'
p54
g2
sS'IVAR'
p55
g29
sS'F110W'
p56
g2
sS'E_F110W'
p57
g2
sS'MASK_RA_DEG'
p58
g2
sS'SLITNAME'
p59
S'3A'
p60
sS'T'
p61
g2
sS'RA_DEG'
p62
g2
sS'CSTAR'
p63
g2
sS'R'
p64
g2
sS'SNR'
p65
g2
sS'OBJNAME'
p66
S'16A'
p67
sS'ESTAR'
p68
g2
sS'FULLNAME'
p69
S'38A'
p70
sS'POS_A'
p71
g2
sS'SPEC'
p72
g29
sS'SPECCALIB'
p73
g29
s.